target datalayout = "e-m:e-p270:32:32-p271:32:32-p272:64:64-i64:64-i128:128-f80:128-n8:16:32:64-S128"
target triple = "x86_64-pc-linux-gnu"

%struct.slurm_conf_t = type { i64, ptr, i16, ptr, ptr, ptr, ptr, ptr, i16, ptr, ptr, ptr, ptr, ptr, ptr, ptr, i16, ptr, ptr, ptr, ptr, i16, ptr, ptr, ptr, i64, ptr, ptr, ptr, ptr, i16, ptr, ptr, i16, i32, ptr, i32, ptr, i32, i32, ptr, ptr, i64, i64, ptr, i16, i16, ptr, i32, i32, ptr, i32, ptr, i32, i16, i16, i16, ptr, i16, i16, ptr, ptr, i32, i16, i16, ptr, i32, i16, ptr, ptr, ptr, ptr, i16, ptr, ptr, ptr, ptr, i32, ptr, ptr, ptr, ptr, i16, i16, ptr, i32, i32, i32, i16, i16, ptr, ptr, i16, ptr, ptr, i32, i32, i32, i32, i32, i64, i32, i32, i16, ptr, ptr, i32, ptr, ptr, ptr, i16, i32, ptr, ptr, i16, ptr, ptr, i32, i16, ptr, ptr, ptr, ptr, i32, i32, i16, i16, i32, ptr, i16, ptr, i32, i32, i32, i32, i32, i32, ptr, i16, ptr, ptr, i32, i16, ptr, i32, i16, i16, ptr, ptr, ptr, i16, ptr, ptr, ptr, ptr, i16, i16, ptr, i16, ptr, i16, ptr, i16, ptr, i16, ptr, ptr, ptr, ptr, i16, ptr, ptr, ptr, i32, ptr, i32, ptr, ptr, i16, ptr, ptr, i32, i16, ptr, ptr, i16, i16, ptr, i16, ptr, ptr, ptr, i32, ptr, i16, i16, ptr, ptr, ptr, ptr, ptr, ptr, ptr, ptr, i16, i32, i16, ptr, ptr, ptr, ptr, i32, ptr, ptr, ptr, i16, ptr, ptr, ptr, i16, ptr, i16, ptr, i16, i16, ptr }
%struct.switch_record_t = type { i32, i32, ptr, ptr, ptr, i16, i16, i16, ptr, ptr, ptr, ptr }
%struct.node_record = type { ptr, ptr, i16, i64, i64, ptr, ptr, ptr, i16, ptr, i16, i16, i32, i32, i64, ptr, i16, i16, ptr, ptr, ptr, ptr, ptr, i64, i64, ptr, ptr, ptr, ptr, i32, ptr, ptr, i64, i64, i32, ptr, i64, ptr, i32, i16, ptr, ptr, i32, ptr, i32, i8, ptr, i32, i16, i16, ptr, i16, i64, i16, i64, ptr, i64, i32, i16, i64, i16, ptr, i16, i64, ptr, i64, i16, i32, i16, ptr, ptr, ptr, i16, i32, i16, i16, i32, ptr, i16, i32 }

@plugin_type = dso_local constant [14 x i8] c"topology/tree\00", align 1
@node_record_count = dso_local global i32 0, align 4
@switch_record_cnt = external global i32, align 4
@switch_record_table = external global ptr, align 8
@slurm_conf = external global %struct.slurm_conf_t, align 8
@.str.1 = private unnamed_addr constant [17 x i8] c"SwitchAsNodeRank\00", align 1
@node_record_table_ptr = dso_local global ptr null, align 8
@.str.2 = private unnamed_addr constant [24 x i8] c"%s: %s: node=%s rank=%d\00", align 1
@__func__.topology_p_generate_node_ranking = private unnamed_addr constant [33 x i8] c"topology_p_generate_node_ranking\00", align 1

; Function Attrs: nounwind uwtable
define dso_local zeroext i1 @topology_p_generate_node_ranking() #0 {
  %1 = alloca i1, align 1
  %2 = alloca i32, align 4
  %3 = alloca i32, align 4
  %4 = alloca i32, align 4
  %5 = alloca i32, align 4
  call void @llvm.lifetime.start.p0(i64 4, ptr %2) #10
  store i32 1, ptr %2, align 4
  %6 = load ptr, ptr getelementptr inbounds nuw (%struct.slurm_conf_t, ptr @slurm_conf, i32 0, i32 217), align 8
  %7 = call ptr @slurm_xstrcasestr(ptr noundef %6, ptr noundef @.str.1)
  %8 = icmp ne ptr %7, null
  br i1 %8, label %10, label %9

9:                                                ; preds = %0
  store i1 false, ptr %1, align 1
  store i32 1, ptr %3, align 4
  br label %83

10:                                               ; preds = %0
  call void @switch_record_validate()
  %11 = load i32, ptr @switch_record_cnt, align 4
  %12 = icmp eq i32 %11, 0
  br i1 %12, label %13, label %14

13:                                               ; preds = %10
  store i1 false, ptr %1, align 1
  store i32 1, ptr %3, align 4
  br label %83

14:                                               ; preds = %10
  call void @llvm.lifetime.start.p0(i64 4, ptr %4) #10
  store i32 0, ptr %4, align 4
  br label %15

15:                                               ; preds = %79, %14
  %16 = load i32, ptr %4, align 4
  %17 = load i32, ptr @switch_record_cnt, align 4
  %18 = icmp slt i32 %16, %17
  br i1 %18, label %20, label %19

19:                                               ; preds = %15
  store i32 2, ptr %3, align 4
  call void @llvm.lifetime.end.p0(i64 4, ptr %4) #10
  br label %82

20:                                               ; preds = %15
  %21 = load ptr, ptr @switch_record_table, align 8
  %22 = load i32, ptr %4, align 4
  %23 = sext i32 %22 to i64
  %24 = getelementptr inbounds %struct.switch_record_t, ptr %21, i64 %23
  %25 = getelementptr inbounds nuw %struct.switch_record_t, ptr %24, i32 0, i32 0
  %26 = load i32, ptr %25, align 8
  %27 = icmp ne i32 %26, 0
  br i1 %27, label %28, label %29

28:                                               ; preds = %20
  br label %79

29:                                               ; preds = %20
  call void @llvm.lifetime.start.p0(i64 4, ptr %5) #10
  store i32 0, ptr %5, align 4
  br label %30

30:                                               ; preds = %73, %29
  %31 = load i32, ptr %5, align 4
  %32 = load i32, ptr @node_record_count, align 4
  %33 = icmp slt i32 %31, %32
  br i1 %33, label %35, label %34

34:                                               ; preds = %30
  store i32 5, ptr %3, align 4
  call void @llvm.lifetime.end.p0(i64 4, ptr %5) #10
  br label %76

35:                                               ; preds = %30
  %36 = load ptr, ptr @switch_record_table, align 8
  %37 = load i32, ptr %4, align 4
  %38 = sext i32 %37 to i64
  %39 = getelementptr inbounds %struct.switch_record_t, ptr %36, i64 %38
  %40 = getelementptr inbounds nuw %struct.switch_record_t, ptr %39, i32 0, i32 3
  %41 = load ptr, ptr %40, align 8
  %42 = load i32, ptr %5, align 4
  %43 = sext i32 %42 to i64
  %44 = call i32 @slurm_bit_test(ptr noundef %41, i64 noundef %43)
  %45 = icmp ne i32 %44, 0
  br i1 %45, label %47, label %46

46:                                               ; preds = %35
  br label %73

47:                                               ; preds = %35
  %48 = load i32, ptr %2, align 4
  %49 = load ptr, ptr @node_record_table_ptr, align 8
  %50 = load i32, ptr %5, align 4
  %51 = sext i32 %50 to i64
  %52 = getelementptr inbounds ptr, ptr %49, i64 %51
  %53 = load ptr, ptr %52, align 8
  %54 = getelementptr inbounds nuw %struct.node_record, ptr %53, i32 0, i32 42
  store i32 %48, ptr %54, align 8
  br label %55

55:                                               ; preds = %47
  br label %56

56:                                               ; preds = %55
  %57 = call i32 @slurm_get_log_level()
  %58 = icmp sge i32 %57, 5
  br i1 %58, label %59, label %68

59:                                               ; preds = %56
  %60 = load ptr, ptr @node_record_table_ptr, align 8
  %61 = load i32, ptr %5, align 4
  %62 = sext i32 %61 to i64
  %63 = getelementptr inbounds ptr, ptr %60, i64 %62
  %64 = load ptr, ptr %63, align 8
  %65 = getelementptr inbounds nuw %struct.node_record, ptr %64, i32 0, i32 37
  %66 = load ptr, ptr %65, align 8
  %67 = load i32, ptr %2, align 4
  call void (i32, ptr, ...) @slurm_log_var(i32 noundef 5, ptr noundef @.str.2, ptr noundef @plugin_type, ptr noundef @__func__.topology_p_generate_node_ranking, ptr noundef %66, i32 noundef %67)
  br label %68

68:                                               ; preds = %59, %56
  br label %69

69:                                               ; preds = %68
  br label %70

70:                                               ; preds = %69
  br label %71

71:                                               ; preds = %70
  br label %72

72:                                               ; preds = %71
  br label %73

73:                                               ; preds = %72, %46
  %74 = load i32, ptr %5, align 4
  %75 = add nsw i32 %74, 1
  store i32 %75, ptr %5, align 4
  br label %30, !llvm.loop !12

76:                                               ; preds = %34
  %77 = load i32, ptr %2, align 4
  %78 = add nsw i32 %77, 1
  store i32 %78, ptr %2, align 4
  br label %79

79:                                               ; preds = %76, %28
  %80 = load i32, ptr %4, align 4
  %81 = add nsw i32 %80, 1
  store i32 %81, ptr %4, align 4
  br label %15, !llvm.loop !13

82:                                               ; preds = %19
  call void @switch_record_table_destroy()
  store i1 true, ptr %1, align 1
  store i32 1, ptr %3, align 4
  br label %83

83:                                               ; preds = %82, %13, %9
  call void @llvm.lifetime.end.p0(i64 4, ptr %2) #10
  %84 = load i1, ptr %1, align 1
  ret i1 %84
}