; Function Attrs: nounwind uwtable
define dso_local noundef zeroext i1 @topology_p_generate_node_ranking() local_unnamed_addr #0 {
  %1 = load ptr, ptr getelementptr inbounds nuw (i8, ptr @slurm_conf, i64 1472), align 8
  %2 = tail call ptr @slurm_xstrcasestr(ptr noundef %1, ptr noundef nonnull @.str.1) #13
  %.not = icmp eq ptr %2, null
  br i1 %.not, label %39, label %3

3:                                                ; preds = %0
  tail call void @switch_record_validate() #13
  %4 = load i32, ptr @switch_record_cnt, align 4
  %5 = icmp eq i32 %4, 0
  br i1 %5, label %39, label %.preheader17

.preheader17:                                     ; preds = %3
  %6 = icmp sgt i32 %4, 0
  br i1 %6, label %.lr.ph21, label %._crit_edge22

._crit_edge22:                                    ; preds = %35, %.preheader17
  tail call void @switch_record_table_destroy() #13
  br label %39

.lr.ph21:                                         ; preds = %.preheader17, %35
  %.pre27 = phi i32 [ %.pre28, %35 ], [ %4, %.preheader17 ]
  %7 = phi i32 [ %36, %35 ], [ %4, %.preheader17 ]
  %indvars.iv24 = phi i64 [ %indvars.iv.next25, %35 ], [ 0, %.preheader17 ]
  %.01319 = phi i32 [ %.1, %35 ], [ 1, %.preheader17 ]
  %8 = load ptr, ptr @switch_record_table, align 8
  %9 = getelementptr inbounds nuw %struct.switch_record_t, ptr %8, i64 %indvars.iv24
  %10 = load i32, ptr %9, align 8
  %.not15 = icmp eq i32 %10, 0
  br i1 %.not15, label %.preheader, label %35

.preheader:                                       ; preds = %.lr.ph21
  %11 = load i32, ptr @node_record_count, align 4
  %12 = icmp sgt i32 %11, 0
  br i1 %12, label %.lr.ph, label %._crit_edge

._crit_edge.loopexit:                             ; preds = %31
  %.pre.pre = load i32, ptr @switch_record_cnt, align 4
  br label %._crit_edge

._crit_edge:                                      ; preds = %._crit_edge.loopexit, %.preheader
  %.pre = phi i32 [ %.pre.pre, %._crit_edge.loopexit ], [ %.pre27, %.preheader ]
  %13 = add nsw i32 %.01319, 1
  br label %35

.lr.ph:                                           ; preds = %.preheader, %31
  %indvars.iv = phi i64 [ %indvars.iv.next, %31 ], [ 0, %.preheader ]
  %14 = load ptr, ptr @switch_record_table, align 8
  %15 = getelementptr inbounds nuw %struct.switch_record_t, ptr %14, i64 %indvars.iv24, i32 3
  %16 = load ptr, ptr %15, align 8
  %17 = tail call i32 @slurm_bit_test(ptr noundef %16, i64 noundef %indvars.iv) #13
  %.not16 = icmp eq i32 %17, 0
  br i1 %.not16, label %31, label %18

18:                                               ; preds = %.lr.ph
  %19 = load ptr, ptr @node_record_table_ptr, align 8
  %20 = getelementptr inbounds nuw ptr, ptr %19, i64 %indvars.iv
  %21 = load ptr, ptr %20, align 8
  %22 = getelementptr inbounds nuw i8, ptr %21, i64 304
  store i32 %.01319, ptr %22, align 8
  %23 = tail call i32 @slurm_get_log_level() #13
  %24 = icmp sgt i32 %23, 4
  br i1 %24, label %25, label %31

25:                                               ; preds = %18
  %26 = load ptr, ptr @node_record_table_ptr, align 8
  %27 = getelementptr inbounds nuw ptr, ptr %26, i64 %indvars.iv
  %28 = load ptr, ptr %27, align 8
  %29 = getelementptr inbounds nuw i8, ptr %28, i64 272
  %30 = load ptr, ptr %29, align 8
  tail call void (i32, ptr, ...) @slurm_log_var(i32 noundef 5, ptr noundef nonnull @.str.2, ptr noundef nonnull @plugin_type, ptr noundef nonnull @__func__.topology_p_generate_node_ranking, ptr noundef %30, i32 noundef %.01319) #13
  br label %31

31:                                               ; preds = %18, %25, %.lr.ph
  %indvars.iv.next = add nuw nsw i64 %indvars.iv, 1
  %32 = load i32, ptr @node_record_count, align 4
  %33 = sext i32 %32 to i64
  %34 = icmp slt i64 %indvars.iv.next, %33
  br i1 %34, label %.lr.ph, label %._crit_edge.loopexit, !llvm.loop !12

35:                                               ; preds = %.lr.ph21, %._crit_edge
  %.pre28 = phi i32 [ %.pre27, %.lr.ph21 ], [ %.pre, %._crit_edge ]
  %36 = phi i32 [ %7, %.lr.ph21 ], [ %.pre, %._crit_edge ]
  %.1 = phi i32 [ %.01319, %.lr.ph21 ], [ %13, %._crit_edge ]
  %indvars.iv.next25 = add nuw nsw i64 %indvars.iv24, 1
  %37 = sext i32 %36 to i64
  %38 = icmp slt i64 %indvars.iv.next25, %37
  br i1 %38, label %.lr.ph21, label %._crit_edge22, !llvm.loop !13

39:                                               ; preds = %3, %0, %._crit_edge22
  %.014 = phi i1 [ true, %._crit_edge22 ], [ false, %0 ], [ false, %3 ]
  ret i1 %.014
}